(dp0
S'wall'
p1
I8
sS'yellow'
p2
I4
sS'sea'
p3
I4
sS'driv_srfc'
p4
I0
sS'ground'
p5
I0
sS'blue'
p6
I1
sS'storage'
p7
I2
sS'start'
p8
I1
sS'black'
p9
I2
sS'lwr_plat'
p10
I2
sS'white'
p11
I7
sS'filled'
p12
I0
sS'brown'
p13
I6
sS'upp_plat'
p14
I3
sS'not_path'
p15
I1
sS'red'
p16
I5
sS'path'
p17
I0
sS'line'
p18
I7
sS'land'
p19
I3
sS'ramp'
p20
I1
sS'air'
p21
I5
sS'edge'
p22
I9
sS'green'
p23
I3
sS'empty'
p24
I1
sS'unk'
p25
I0
s.