(dp0
S'sea'
p1
((I276
I688
tp2
(F17.25
F43.0
tp3
I0
tp4
sS'lwrPlt'
p5
((I1360
I976
tp6
(F85.0
F61.0
tp7
I0
tp8
sS'Se04'
p9
((I44
cnumpy.core.multiarray
scalar
p10
(cnumpy
dtype
p11
(S'u2'
p12
I0
I1
tp13
Rp14
(I3
S'<'
p15
NNNI-1
I-1
I0
tp16
bS'\xf0\x02'
p17
tp18
Rp19
tp20
(F2.75
g10
(g11
(S'f2'
p21
I0
I1
tp22
Rp23
(I3
S'<'
p24
NNNI-1
I-1
I0
tp25
bS'\xe0Q'
p26
tp27
Rp28
tp29
I0
tp30
sS'storage'
p31
((I590
I476
tp32
(F36.875
F29.75
tp33
I0
tp34
sS'St01'
p35
((g10
(g14
S'\x86\x03'
p36
tp37
Rp38
I724
tp39
(g10
(g23
S'\x0cS'
p40
tp41
Rp42
F45.25
tp43
I0
tp44
sS'start'
p45
((I108
I108
tp46
(F6.75
F6.75
tp47
tp48
sS'St03'
p49
((g10
(g14
S'&\x03'
p50
tp51
Rp52
I724
tp53
(g10
(g23
S'LR'
p54
tp55
Rp56
F45.25
tp57
I0
tp58
sS'St02'
p59
((g10
(g14
S'V\x03'
p60
tp61
Rp62
I724
tp63
(g10
(g23
S'\xacR'
p64
tp65
Rp66
F45.25
tp67
I0
tp68
sS'St05'
p69
((g10
(g14
S'\xc6\x02'
p70
tp71
Rp72
I724
tp73
(g10
(g23
S',Q'
p74
tp75
Rp76
F45.25
tp77
I0
tp78
sS'St04'
p79
((g10
(g14
S'\xf6\x02'
p80
tp81
Rp82
I724
tp83
(g10
(g23
S'\xecQ'
p84
tp85
Rp86
F45.25
tp87
I0
tp88
sS'St07'
p89
((g10
(g14
S'f\x02'
p90
tp91
Rp92
I724
tp93
(g10
(g23
S'\xccP'
p94
tp95
Rp96
F45.25
tp97
I0
tp98
sS'St06'
p99
((g10
(g14
S'\x96\x02'
p100
tp101
Rp102
I724
tp103
(g10
(g23
S',Q'
p104
tp105
Rp106
F45.25
tp107
I0
tp108
sS'St09'
p109
((g10
(g14
S'\x06\x02'
p110
tp111
Rp112
I724
tp113
(g10
(g23
S'\x0cP'
p114
tp115
Rp116
F45.25
tp117
I0
tp118
sS'St08'
p119
((g10
(g14
S'6\x02'
p120
tp121
Rp122
I724
tp123
(g10
(g23
S'lP'
p124
tp125
Rp126
F45.25
tp127
I0
tp128
sS'L06'
p129
((g10
(g14
S'$\x03'
p130
tp131
Rp132
I52
tp133
(g10
(g23
S'HR'
p134
tp135
Rp136
F3.25
tp137
I0
tp138
sS'L05'
p139
((g10
(g14
S'T\x03'
p140
tp141
Rp142
I52
tp143
(g10
(g23
S'\xa8R'
p144
tp145
Rp146
F3.25
tp147
I0
tp148
sS'L04'
p149
((g10
(g14
S'\x84\x03'
p150
tp151
Rp152
I52
tp153
(g10
(g23
S'\x08S'
p154
tp155
Rp156
F3.25
tp157
I0
tp158
sS'L03'
p159
((g10
(g14
S'\xb4\x03'
p160
tp161
Rp162
I52
tp163
(g10
(g23
S'hS'
p164
tp165
Rp166
F3.25
tp167
I0
tp168
sS'L02'
p169
((g10
(g14
S'\xe4\x03'
p170
tp171
Rp172
I52
tp173
(g10
(g23
S'\xc8S'
p174
tp175
Rp176
F3.25
tp177
I0
tp178
sS'L01'
p179
((g10
(g14
S'\x14\x04'
p180
tp181
Rp182
I52
tp183
(g10
(g23
S'\x14T'
p184
tp185
Rp186
F3.25
tp187
I0
tp188
sS'Se01'
p189
((I44
g10
(g14
S'`\x02'
p190
tp191
Rp192
tp193
(F2.75
g10
(g23
S'\xc0P'
p194
tp195
Rp196
tp197
I0
tp198
sS'Se02'
p199
((I44
g10
(g14
S'\x90\x02'
p200
tp201
Rp202
tp203
(F2.75
g10
(g23
S' Q'
p204
tp205
Rp206
tp207
I0
tp208
sS'Se03'
p209
((I44
g10
(g14
S'\xc0\x02'
p210
tp211
Rp212
tp213
(F2.75
g10
(g23
S'\x80Q'
p214
tp215
Rp216
tp217
I0
tp218
sS'grnd2ramp'
p219
((I1360
I200
tp220
(F85.0
F12.5
tp221
I0
tp222
sS'Se05'
p223
((I44
g10
(g14
S' \x03'
p224
tp225
Rp226
tp227
(F2.75
g10
(g23
S'@R'
p228
tp229
Rp230
tp231
I0
tp232
sS'Se06'
p233
((I44
g10
(g14
S'P\x03'
p234
tp235
Rp236
tp237
(F2.75
g10
(g23
S'\xa0R'
p238
tp239
Rp240
tp241
I0
tp242
sS'land'
p243
((I868
I292
tp244
(F54.25
F18.25
tp245
I0
tp246
sS'A02'
p247
((I24
I952
tp248
(F1.5
F59.5
tp249
I0
tp250
sS'A01'
p251
((I24
I1000
tp252
(F1.5
F62.5
tp253
I0
tp254
sS'air'
p255
((I248
I976
tp256
(F15.5
F61.0
tp257
I0
tp258
sS'St14'
p259
((g10
(g14
S'\x16\x01'
p260
tp261
Rp262
I724
tp263
(g10
(g23
S'XL'
p264
tp265
Rp266
F45.25
tp267
I0
tp268
sS'St12'
p269
((g10
(g14
S'v\x01'
p270
tp271
Rp272
I724
tp273
(g10
(g23
S'\xd8M'
p274
tp275
Rp276
F45.25
tp277
I0
tp278
sS'St13'
p279
((g10
(g14
S'F\x01'
p280
tp281
Rp282
I724
tp283
(g10
(g23
S'\x18M'
p284
tp285
Rp286
F45.25
tp287
I0
tp288
sS'St10'
p289
((g10
(g14
S'\xd6\x01'
p290
tp291
Rp292
I724
tp293
(g10
(g23
S'XO'
p294
tp295
Rp296
F45.25
tp297
I0
tp298
sS'St11'
p299
((g10
(g14
S'\xa6\x01'
p300
tp301
Rp302
I724
tp303
(g10
(g23
S'\x98N'
p304
tp305
Rp306
F45.25
tp307
I0
tp308
s.